target datalayout = "e-m:e-p270:32:32-p271:32:32-p272:64:64-i64:64-i128:128-f80:128-n8:16:32:64-S128"
target triple = "x86_64-pc-linux-gnu"

%struct.FT_FaceRec_ = type { i64, i64, i64, i64, i64, ptr, ptr, i32, ptr, i32, ptr, %struct.FT_Generic_, %struct.FT_BBox_, i16, i16, i16, i16, i16, i16, i16, i16, ptr, ptr, ptr, ptr, ptr, ptr, %struct.FT_ListRec_, %struct.FT_Generic_, ptr, ptr }
%struct.FT_BBox_ = type { i64, i64, i64, i64 }
%struct.FT_ListRec_ = type { ptr, ptr }
%struct.FT_Generic_ = type { ptr, ptr }
%struct.FT_MemoryRec_ = type { ptr, ptr, ptr, ptr }
%struct.FT_CMapRec_ = type { %struct.FT_CharMapRec_, ptr }
%struct.FT_CharMapRec_ = type { ptr, i32, i16, i16 }
%struct.FT_CMap_ClassRec_ = type { i64, ptr, ptr, ptr, ptr, ptr, ptr, ptr, ptr, ptr }

; Function Attrs: nounwind uwtable
define hidden void @ft_mem_free(ptr noundef %0, ptr noundef %1) #0 {
  %3 = alloca ptr, align 8
  %4 = alloca ptr, align 8
  store ptr %0, ptr %3, align 8, !tbaa !185
  store ptr %1, ptr %4, align 8, !tbaa !41
  %5 = load ptr, ptr %4, align 8, !tbaa !41
  %6 = icmp ne ptr %5, null
  br i1 %6, label %7, label %13

7:                                                ; preds = %2
  %8 = load ptr, ptr %3, align 8, !tbaa !185
  %9 = getelementptr inbounds nuw %struct.FT_MemoryRec_, ptr %8, i32 0, i32 2
  %10 = load ptr, ptr %9, align 8, !tbaa !209
  %11 = load ptr, ptr %3, align 8, !tbaa !185
  %12 = load ptr, ptr %4, align 8, !tbaa !41
  call void %10(ptr noundef %11, ptr noundef %12)
  br label %13

13:                                               ; preds = %7, %2
  ret void
}

; Function Attrs: nounwind uwtable
define hidden ptr @ft_mem_qalloc(ptr noundef %0, i64 noundef %1, ptr noundef %2) #0 {
  %4 = alloca ptr, align 8
  %5 = alloca i64, align 8
  %6 = alloca ptr, align 8
  %7 = alloca i32, align 4
  %8 = alloca ptr, align 8
  store ptr %0, ptr %4, align 8, !tbaa !185
  store i64 %1, ptr %5, align 8, !tbaa !47
  store ptr %2, ptr %6, align 8, !tbaa !164
  call void @llvm.lifetime.start.p0(i64 4, ptr %7) #10
  store i32 0, ptr %7, align 4, !tbaa !8
  call void @llvm.lifetime.start.p0(i64 8, ptr %8) #10
  store ptr null, ptr %8, align 8, !tbaa !41
  %9 = load i64, ptr %5, align 8, !tbaa !47
  %10 = icmp sgt i64 %9, 0
  br i1 %10, label %11, label %22

11:                                               ; preds = %3
  %12 = load ptr, ptr %4, align 8, !tbaa !185
  %13 = getelementptr inbounds nuw %struct.FT_MemoryRec_, ptr %12, i32 0, i32 1
  %14 = load ptr, ptr %13, align 8, !tbaa !408
  %15 = load ptr, ptr %4, align 8, !tbaa !185
  %16 = load i64, ptr %5, align 8, !tbaa !47
  %17 = call ptr %14(ptr noundef %15, i64 noundef %16)
  store ptr %17, ptr %8, align 8, !tbaa !41
  %18 = load ptr, ptr %8, align 8, !tbaa !41
  %19 = icmp ne ptr %18, null
  br i1 %19, label %21, label %20

20:                                               ; preds = %11
  store i32 64, ptr %7, align 4, !tbaa !8
  br label %21

21:                                               ; preds = %20, %11
  br label %27

22:                                               ; preds = %3
  %23 = load i64, ptr %5, align 8, !tbaa !47
  %24 = icmp slt i64 %23, 0
  br i1 %24, label %25, label %26

25:                                               ; preds = %22
  store i32 6, ptr %7, align 4, !tbaa !8
  br label %26

26:                                               ; preds = %25, %22
  br label %27

27:                                               ; preds = %26, %21
  %28 = load i32, ptr %7, align 4, !tbaa !8
  %29 = load ptr, ptr %6, align 8, !tbaa !164
  store i32 %28, ptr %29, align 4, !tbaa !8
  %30 = load ptr, ptr %8, align 8, !tbaa !41
  call void @llvm.lifetime.end.p0(i64 8, ptr %8) #10
  call void @llvm.lifetime.end.p0(i64 4, ptr %7) #10
  ret ptr %30
}

; Function Attrs: nounwind uwtable
define internal void @ft_cmap_done_internal(ptr noundef %0) #0 {
  %2 = alloca ptr, align 8
  %3 = alloca ptr, align 8
  %4 = alloca ptr, align 8
  %5 = alloca ptr, align 8
  store ptr %0, ptr %2, align 8, !tbaa !354
  call void @llvm.lifetime.start.p0(i64 8, ptr %3) #10
  %6 = load ptr, ptr %2, align 8, !tbaa !354
  %7 = getelementptr inbounds nuw %struct.FT_CMapRec_, ptr %6, i32 0, i32 1
  %8 = load ptr, ptr %7, align 8, !tbaa !356
  store ptr %8, ptr %3, align 8, !tbaa !467
  call void @llvm.lifetime.start.p0(i64 8, ptr %4) #10
  %9 = load ptr, ptr %2, align 8, !tbaa !354
  %10 = getelementptr inbounds nuw %struct.FT_CMapRec_, ptr %9, i32 0, i32 0
  %11 = getelementptr inbounds nuw %struct.FT_CharMapRec_, ptr %10, i32 0, i32 0
  %12 = load ptr, ptr %11, align 8, !tbaa !463
  store ptr %12, ptr %4, align 8, !tbaa !3
  call void @llvm.lifetime.start.p0(i64 8, ptr %5) #10
  %13 = load ptr, ptr %4, align 8, !tbaa !3
  %14 = getelementptr inbounds nuw %struct.FT_FaceRec_, ptr %13, i32 0, i32 25
  %15 = load ptr, ptr %14, align 8, !tbaa !287
  store ptr %15, ptr %5, align 8, !tbaa !185
  %16 = load ptr, ptr %3, align 8, !tbaa !467
  %17 = getelementptr inbounds nuw %struct.FT_CMap_ClassRec_, ptr %16, i32 0, i32 2
  %18 = load ptr, ptr %17, align 8, !tbaa !468
  %19 = icmp ne ptr %18, null
  br i1 %19, label %20, label %25

20:                                               ; preds = %1
  %21 = load ptr, ptr %3, align 8, !tbaa !467
  %22 = getelementptr inbounds nuw %struct.FT_CMap_ClassRec_, ptr %21, i32 0, i32 2
  %23 = load ptr, ptr %22, align 8, !tbaa !468
  %24 = load ptr, ptr %2, align 8, !tbaa !354
  call void %23(ptr noundef %24)
  br label %25

25:                                               ; preds = %20, %1
  br label %26

26:                                               ; preds = %25
  %27 = load ptr, ptr %5, align 8, !tbaa !185
  %28 = load ptr, ptr %2, align 8, !tbaa !354
  call void @ft_mem_free(ptr noundef %27, ptr noundef %28)
  store ptr null, ptr %2, align 8, !tbaa !354
  br label %29

29:                                               ; preds = %26
  br label %30

30:                                               ; preds = %29
  call void @llvm.lifetime.end.p0(i64 8, ptr %5) #10
  call void @llvm.lifetime.end.p0(i64 8, ptr %4) #10
  call void @llvm.lifetime.end.p0(i64 8, ptr %3) #10
  ret void
}

; Function Attrs: nounwind uwtable
define hidden ptr @ft_mem_qrealloc(ptr noundef %0, i64 noundef %1, i64 noundef %2, i64 noundef %3, ptr noundef %4, ptr noundef %5) #0 {
  %7 = alloca ptr, align 8
  %8 = alloca i64, align 8
  %9 = alloca i64, align 8
  %10 = alloca i64, align 8
  %11 = alloca ptr, align 8
  %12 = alloca ptr, align 8
  %13 = alloca i32, align 4
  %14 = alloca ptr, align 8
  %15 = alloca i64, align 8
  %16 = alloca i64, align 8
  store ptr %0, ptr %7, align 8, !tbaa !185
  store i64 %1, ptr %8, align 8, !tbaa !47
  store i64 %2, ptr %9, align 8, !tbaa !47
  store i64 %3, ptr %10, align 8, !tbaa !47
  store ptr %4, ptr %11, align 8, !tbaa !41
  store ptr %5, ptr %12, align 8, !tbaa !164
  call void @llvm.lifetime.start.p0(i64 4, ptr %13) #10
  store i32 0, ptr %13, align 4, !tbaa !8
  %17 = load i64, ptr %9, align 8, !tbaa !47
  %18 = icmp slt i64 %17, 0
  br i1 %18, label %25, label %19

19:                                               ; preds = %6
  %20 = load i64, ptr %10, align 8, !tbaa !47
  %21 = icmp slt i64 %20, 0
  br i1 %21, label %25, label %22

22:                                               ; preds = %19
  %23 = load i64, ptr %8, align 8, !tbaa !47
  %24 = icmp slt i64 %23, 0
  br i1 %24, label %25, label %26

25:                                               ; preds = %22, %19, %6
  store i32 6, ptr %13, align 4, !tbaa !8
  br label %84

26:                                               ; preds = %22
  %27 = load i64, ptr %10, align 8, !tbaa !47
  %28 = icmp eq i64 %27, 0
  br i1 %28, label %32, label %29

29:                                               ; preds = %26
  %30 = load i64, ptr %8, align 8, !tbaa !47
  %31 = icmp eq i64 %30, 0
  br i1 %31, label %32, label %35

32:                                               ; preds = %29, %26
  %33 = load ptr, ptr %7, align 8, !tbaa !185
  %34 = load ptr, ptr %11, align 8, !tbaa !41
  call void @ft_mem_free(ptr noundef %33, ptr noundef %34)
  store ptr null, ptr %11, align 8, !tbaa !41
  br label %83

35:                                               ; preds = %29
  %36 = load i64, ptr %10, align 8, !tbaa !47
  %37 = load i64, ptr %8, align 8, !tbaa !47
  %38 = sdiv i64 2147483647, %37
  %39 = icmp sgt i64 %36, %38
  br i1 %39, label %40, label %41

40:                                               ; preds = %35
  store i32 10, ptr %13, align 4, !tbaa !8
  br label %82

41:                                               ; preds = %35
  %42 = load i64, ptr %9, align 8, !tbaa !47
  %43 = icmp eq i64 %42, 0
  br i1 %43, label %44, label %60

44:                                               ; preds = %41
  br label %45

45:                                               ; preds = %44
  br label %46

46:                                               ; preds = %45
  br label %47

47:                                               ; preds = %46
  %48 = load ptr, ptr %7, align 8, !tbaa !185
  %49 = getelementptr inbounds nuw %struct.FT_MemoryRec_, ptr %48, i32 0, i32 1
  %50 = load ptr, ptr %49, align 8, !tbaa !408
  %51 = load ptr, ptr %7, align 8, !tbaa !185
  %52 = load i64, ptr %10, align 8, !tbaa !47
  %53 = load i64, ptr %8, align 8, !tbaa !47
  %54 = mul nsw i64 %52, %53
  %55 = call ptr %50(ptr noundef %51, i64 noundef %54)
  store ptr %55, ptr %11, align 8, !tbaa !41
  %56 = load ptr, ptr %11, align 8, !tbaa !41
  %57 = icmp eq ptr %56, null
  br i1 %57, label %58, label %59

58:                                               ; preds = %47
  store i32 64, ptr %13, align 4, !tbaa !8
  br label %59

59:                                               ; preds = %58, %47
  br label %81

60:                                               ; preds = %41
  call void @llvm.lifetime.start.p0(i64 8, ptr %14) #10
  call void @llvm.lifetime.start.p0(i64 8, ptr %15) #10
  %61 = load i64, ptr %9, align 8, !tbaa !47
  %62 = load i64, ptr %8, align 8, !tbaa !47
  %63 = mul nsw i64 %61, %62
  store i64 %63, ptr %15, align 8, !tbaa !47
  call void @llvm.lifetime.start.p0(i64 8, ptr %16) #10
  %64 = load i64, ptr %10, align 8, !tbaa !47
  %65 = load i64, ptr %8, align 8, !tbaa !47
  %66 = mul nsw i64 %64, %65
  store i64 %66, ptr %16, align 8, !tbaa !47
  %67 = load ptr, ptr %7, align 8, !tbaa !185
  %68 = getelementptr inbounds nuw %struct.FT_MemoryRec_, ptr %67, i32 0, i32 3
  %69 = load ptr, ptr %68, align 8, !tbaa !466
  %70 = load ptr, ptr %7, align 8, !tbaa !185
  %71 = load i64, ptr %15, align 8, !tbaa !47
  %72 = load i64, ptr %16, align 8, !tbaa !47
  %73 = load ptr, ptr %11, align 8, !tbaa !41
  %74 = call ptr %69(ptr noundef %70, i64 noundef %71, i64 noundef %72, ptr noundef %73)
  store ptr %74, ptr %14, align 8, !tbaa !41
  %75 = load ptr, ptr %14, align 8, !tbaa !41
  %76 = icmp ne ptr %75, null
  br i1 %76, label %78, label %77

77:                                               ; preds = %60
  store i32 64, ptr %13, align 4, !tbaa !8
  br label %80

78:                                               ; preds = %60
  %79 = load ptr, ptr %14, align 8, !tbaa !41
  store ptr %79, ptr %11, align 8, !tbaa !41
  br label %80

80:                                               ; preds = %78, %77
  call void @llvm.lifetime.end.p0(i64 8, ptr %16) #10
  call void @llvm.lifetime.end.p0(i64 8, ptr %15) #10
  call void @llvm.lifetime.end.p0(i64 8, ptr %14) #10
  br label %81

81:                                               ; preds = %80, %59
  br label %82

82:                                               ; preds = %81, %40
  br label %83

83:                                               ; preds = %82, %32
  br label %84

84:                                               ; preds = %83, %25
  %85 = load i32, ptr %13, align 4, !tbaa !8
  %86 = load ptr, ptr %12, align 8, !tbaa !164
  store i32 %85, ptr %86, align 4, !tbaa !8
  %87 = load ptr, ptr %11, align 8, !tbaa !41
  call void @llvm.lifetime.end.p0(i64 4, ptr %13) #10
  ret ptr %87
}

; Function Attrs: nounwind uwtable
define hidden ptr @ft_mem_alloc(ptr noundef %0, i64 noundef %1, ptr noundef %2) #0 {
  %4 = alloca ptr, align 8
  %5 = alloca i64, align 8
  %6 = alloca ptr, align 8
  %7 = alloca i32, align 4
  %8 = alloca ptr, align 8
  store ptr %0, ptr %4, align 8, !tbaa !185
  store i64 %1, ptr %5, align 8, !tbaa !47
  store ptr %2, ptr %6, align 8, !tbaa !164
  call void @llvm.lifetime.start.p0(i64 4, ptr %7) #10
  call void @llvm.lifetime.start.p0(i64 8, ptr %8) #10
  %9 = load ptr, ptr %4, align 8, !tbaa !185
  %10 = load i64, ptr %5, align 8, !tbaa !47
  %11 = call ptr @ft_mem_qalloc(ptr noundef %9, i64 noundef %10, ptr noundef %7)
  store ptr %11, ptr %8, align 8, !tbaa !41
  %12 = load i32, ptr %7, align 4, !tbaa !8
  %13 = icmp ne i32 %12, 0
  br i1 %13, label %23, label %14

14:                                               ; preds = %3
  %15 = load ptr, ptr %8, align 8, !tbaa !41
  %16 = icmp ne ptr %15, null
  br i1 %16, label %17, label %23

17:                                               ; preds = %14
  %18 = load i64, ptr %5, align 8, !tbaa !47
  %19 = icmp sgt i64 %18, 0
  br i1 %19, label %20, label %23

20:                                               ; preds = %17
  %21 = load ptr, ptr %8, align 8, !tbaa !41
  %22 = load i64, ptr %5, align 8, !tbaa !47
  call void @llvm.memset.p0.i64(ptr align 1 %21, i8 0, i64 %22, i1 false)
  br label %23

23:                                               ; preds = %20, %17, %14, %3
  %24 = load i32, ptr %7, align 4, !tbaa !8
  %25 = load ptr, ptr %6, align 8, !tbaa !164
  store i32 %24, ptr %25, align 4, !tbaa !8
  %26 = load ptr, ptr %8, align 8, !tbaa !41
  call void @llvm.lifetime.end.p0(i64 8, ptr %8) #10
  call void @llvm.lifetime.end.p0(i64 4, ptr %7) #10
  ret ptr %26
}

; Function Attrs: nounwind uwtable
define hidden i32 @FT_CMap_New(ptr noundef %0, ptr noundef %1, ptr noundef %2, ptr noundef %3) #0 {
  %5 = alloca i32, align 4
  %6 = alloca ptr, align 8
  %7 = alloca ptr, align 8
  %8 = alloca ptr, align 8
  %9 = alloca ptr, align 8
  %10 = alloca i32, align 4
  %11 = alloca ptr, align 8
  %12 = alloca ptr, align 8
  %13 = alloca ptr, align 8
  %14 = alloca i32, align 4
  store ptr %0, ptr %6, align 8, !tbaa !467
  store ptr %1, ptr %7, align 8, !tbaa !41
  store ptr %2, ptr %8, align 8, !tbaa !447
  store ptr %3, ptr %9, align 8, !tbaa !469
  call void @llvm.lifetime.start.p0(i64 4, ptr %10) #10
  call void @llvm.lifetime.start.p0(i64 8, ptr %11) #10
  call void @llvm.lifetime.start.p0(i64 8, ptr %12) #10
  call void @llvm.lifetime.start.p0(i64 8, ptr %13) #10
  store ptr null, ptr %13, align 8, !tbaa !354
  %15 = load ptr, ptr %6, align 8, !tbaa !467
  %16 = icmp ne ptr %15, null
  br i1 %16, label %17, label %25

17:                                               ; preds = %4
  %18 = load ptr, ptr %8, align 8, !tbaa !447
  %19 = icmp ne ptr %18, null
  br i1 %19, label %20, label %25

20:                                               ; preds = %17
  %21 = load ptr, ptr %8, align 8, !tbaa !447
  %22 = getelementptr inbounds nuw %struct.FT_CharMapRec_, ptr %21, i32 0, i32 0
  %23 = load ptr, ptr %22, align 8, !tbaa !455
  %24 = icmp ne ptr %23, null
  br i1 %24, label %26, label %25

25:                                               ; preds = %20, %17, %4
  store i32 6, ptr %5, align 4
  store i32 1, ptr %14, align 4
  br label %104

26:                                               ; preds = %20
  %27 = load ptr, ptr %8, align 8, !tbaa !447
  %28 = getelementptr inbounds nuw %struct.FT_CharMapRec_, ptr %27, i32 0, i32 0
  %29 = load ptr, ptr %28, align 8, !tbaa !455
  store ptr %29, ptr %11, align 8, !tbaa !3
  %30 = load ptr, ptr %11, align 8, !tbaa !3
  %31 = getelementptr inbounds nuw %struct.FT_FaceRec_, ptr %30, i32 0, i32 25
  %32 = load ptr, ptr %31, align 8, !tbaa !287
  store ptr %32, ptr %12, align 8, !tbaa !185
  %33 = load ptr, ptr %12, align 8, !tbaa !185
  %34 = load ptr, ptr %6, align 8, !tbaa !467
  %35 = getelementptr inbounds nuw %struct.FT_CMap_ClassRec_, ptr %34, i32 0, i32 0
  %36 = load i64, ptr %35, align 8, !tbaa !471
  %37 = call ptr @ft_mem_alloc(ptr noundef %33, i64 noundef %36, ptr noundef %10)
  store ptr %37, ptr %13, align 8, !tbaa !354
  %38 = load i32, ptr %10, align 4, !tbaa !8
  %39 = icmp ne i32 %38, 0
  br i1 %39, label %93, label %40

40:                                               ; preds = %26
  %41 = load ptr, ptr %13, align 8, !tbaa !354
  %42 = getelementptr inbounds nuw %struct.FT_CMapRec_, ptr %41, i32 0, i32 0
  %43 = load ptr, ptr %8, align 8, !tbaa !447
  call void @llvm.memcpy.p0.p0.i64(ptr align 8 %42, ptr align 8 %43, i64 16, i1 false), !tbaa.struct !472
  %44 = load ptr, ptr %6, align 8, !tbaa !467
  %45 = load ptr, ptr %13, align 8, !tbaa !354
  %46 = getelementptr inbounds nuw %struct.FT_CMapRec_, ptr %45, i32 0, i32 1
  store ptr %44, ptr %46, align 8, !tbaa !356
  %47 = load ptr, ptr %6, align 8, !tbaa !467
  %48 = getelementptr inbounds nuw %struct.FT_CMap_ClassRec_, ptr %47, i32 0, i32 1
  %49 = load ptr, ptr %48, align 8, !tbaa !473
  %50 = icmp ne ptr %49, null
  br i1 %50, label %51, label %62

51:                                               ; preds = %40
  %52 = load ptr, ptr %6, align 8, !tbaa !467
  %53 = getelementptr inbounds nuw %struct.FT_CMap_ClassRec_, ptr %52, i32 0, i32 1
  %54 = load ptr, ptr %53, align 8, !tbaa !473
  %55 = load ptr, ptr %13, align 8, !tbaa !354
  %56 = load ptr, ptr %7, align 8, !tbaa !41
  %57 = call i32 %54(ptr noundef %55, ptr noundef %56)
  store i32 %57, ptr %10, align 4, !tbaa !8
  %58 = load i32, ptr %10, align 4, !tbaa !8
  %59 = icmp ne i32 %58, 0
  br i1 %59, label %60, label %61

60:                                               ; preds = %51
  br label %102

61:                                               ; preds = %51
  br label %62

62:                                               ; preds = %61, %40
  %63 = load ptr, ptr %12, align 8, !tbaa !185
  %64 = load ptr, ptr %11, align 8, !tbaa !3
  %65 = getelementptr inbounds nuw %struct.FT_FaceRec_, ptr %64, i32 0, i32 9
  %66 = load i32, ptr %65, align 8, !tbaa !444
  %67 = sext i32 %66 to i64
  %68 = load ptr, ptr %11, align 8, !tbaa !3
  %69 = getelementptr inbounds nuw %struct.FT_FaceRec_, ptr %68, i32 0, i32 9
  %70 = load i32, ptr %69, align 8, !tbaa !444
  %71 = add nsw i32 %70, 1
  %72 = sext i32 %71 to i64
  %73 = load ptr, ptr %11, align 8, !tbaa !3
  %74 = getelementptr inbounds nuw %struct.FT_FaceRec_, ptr %73, i32 0, i32 10
  %75 = load ptr, ptr %74, align 8, !tbaa !445
  %76 = call ptr @ft_mem_qrealloc(ptr noundef %63, i64 noundef 8, i64 noundef %67, i64 noundef %72, ptr noundef %75, ptr noundef %10)
  %77 = load ptr, ptr %11, align 8, !tbaa !3
  %78 = getelementptr inbounds nuw %struct.FT_FaceRec_, ptr %77, i32 0, i32 10
  store ptr %76, ptr %78, align 8, !tbaa !445
  %79 = load i32, ptr %10, align 4, !tbaa !8
  %80 = icmp ne i32 %79, 0
  br i1 %80, label %81, label %82

81:                                               ; preds = %62
  br label %102

82:                                               ; preds = %62
  %83 = load ptr, ptr %13, align 8, !tbaa !354
  %84 = load ptr, ptr %11, align 8, !tbaa !3
  %85 = getelementptr inbounds nuw %struct.FT_FaceRec_, ptr %84, i32 0, i32 10
  %86 = load ptr, ptr %85, align 8, !tbaa !445
  %87 = load ptr, ptr %11, align 8, !tbaa !3
  %88 = getelementptr inbounds nuw %struct.FT_FaceRec_, ptr %87, i32 0, i32 9
  %89 = load i32, ptr %88, align 8, !tbaa !444
  %90 = add nsw i32 %89, 1
  store i32 %90, ptr %88, align 8, !tbaa !444
  %91 = sext i32 %89 to i64
  %92 = getelementptr inbounds ptr, ptr %86, i64 %91
  store ptr %83, ptr %92, align 8, !tbaa !447
  br label %93

93:                                               ; preds = %82, %26
  br label %94

94:                                               ; preds = %102, %93
  %95 = load ptr, ptr %9, align 8, !tbaa !469
  %96 = icmp ne ptr %95, null
  br i1 %96, label %97, label %100

97:                                               ; preds = %94
  %98 = load ptr, ptr %13, align 8, !tbaa !354
  %99 = load ptr, ptr %9, align 8, !tbaa !469
  store ptr %98, ptr %99, align 8, !tbaa !354
  br label %100

100:                                              ; preds = %97, %94
  %101 = load i32, ptr %10, align 4, !tbaa !8
  store i32 %101, ptr %5, align 4
  store i32 1, ptr %14, align 4
  br label %104

102:                                              ; preds = %81, %60
  %103 = load ptr, ptr %13, align 8, !tbaa !354
  call void @ft_cmap_done_internal(ptr noundef %103)
  store ptr null, ptr %13, align 8, !tbaa !354
  br label %94

104:                                              ; preds = %100, %25
  call void @llvm.lifetime.end.p0(i64 8, ptr %13) #10
  call void @llvm.lifetime.end.p0(i64 8, ptr %12) #10
  call void @llvm.lifetime.end.p0(i64 8, ptr %11) #10
  call void @llvm.lifetime.end.p0(i64 4, ptr %10) #10
  %105 = load i32, ptr %5, align 4
  ret i32 %105
}