; Function Attrs: nounwind uwtable
define hidden i32 @FT_CMap_New(ptr noundef %0, ptr noundef %1, ptr noundef readonly %2, ptr noundef writeonly %3) local_unnamed_addr #0 {
  %5 = icmp ne ptr %0, null
  %6 = icmp ne ptr %2, null
  %or.cond = and i1 %5, %6
  br i1 %or.cond, label %7, label %68

7:                                                ; preds = %4
  %8 = load ptr, ptr %2, align 8, !tbaa !385
  %.not = icmp eq ptr %8, null
  br i1 %.not, label %68, label %9

9:                                                ; preds = %7
  %10 = getelementptr inbounds nuw i8, ptr %8, i64 184
  %11 = load ptr, ptr %10, align 8, !tbaa !60
  %12 = load i64, ptr %0, align 8, !tbaa !394
  %13 = icmp sgt i64 %12, 0
  br i1 %13, label %ft_mem_qalloc.exit.i, label %ft_mem_qalloc.exit.thread.i

ft_mem_qalloc.exit.thread.i:                      ; preds = %9
  %.not14.i.i = icmp eq i64 %12, 0
  br i1 %.not14.i.i, label %select.unfold, label %ft_mem_alloc.exit

ft_mem_qalloc.exit.i:                             ; preds = %9
  %14 = getelementptr inbounds nuw i8, ptr %11, i64 8
  %15 = load ptr, ptr %14, align 8, !tbaa !179
  %16 = tail call ptr %15(ptr noundef %11, i64 noundef %12) #34
  %.not.i.not.i = icmp eq ptr %16, null
  br i1 %.not.i.not.i, label %ft_mem_alloc.exit, label %17

17:                                               ; preds = %ft_mem_qalloc.exit.i
  tail call void @llvm.memset.p0.i64(ptr nonnull align 1 %16, i8 0, i64 %12, i1 false)
  br label %select.unfold

select.unfold:                                    ; preds = %ft_mem_qalloc.exit.thread.i, %17
  %.0.i17.i.ph = phi ptr [ %16, %17 ], [ null, %ft_mem_qalloc.exit.thread.i ]
  tail call void @llvm.memcpy.p0.p0.i64(ptr noundef nonnull align 8 dereferenceable(16) %.0.i17.i.ph, ptr noundef nonnull align 8 dereferenceable(16) %2, i64 16, i1 false), !tbaa.struct !395
  %18 = getelementptr inbounds nuw i8, ptr %.0.i17.i.ph, i64 16
  store ptr %0, ptr %18, align 8, !tbaa !292
  %19 = getelementptr inbounds nuw i8, ptr %0, i64 8
  %20 = load ptr, ptr %19, align 8, !tbaa !396
  %.not35 = icmp eq ptr %20, null
  br i1 %.not35, label %23, label %21

21:                                               ; preds = %select.unfold
  %22 = tail call i32 %20(ptr noundef nonnull %.0.i17.i.ph, ptr noundef %1) #34
  %.not36 = icmp eq i32 %22, 0
  br i1 %.not36, label %23, label %58

23:                                               ; preds = %21, %select.unfold
  %24 = getelementptr inbounds nuw i8, ptr %8, i64 72
  %25 = load i32, ptr %24, align 8, !tbaa !336
  %26 = sext i32 %25 to i64
  %27 = add nsw i32 %25, 1
  %28 = sext i32 %27 to i64
  %29 = getelementptr inbounds nuw i8, ptr %8, i64 80
  %30 = load ptr, ptr %29, align 8, !tbaa !337
  %31 = or i64 %28, %26
  %or.cond3.not.i = icmp sgt i64 %31, -1
  br i1 %or.cond3.not.i, label %32, label %ft_mem_qrealloc.exit

32:                                               ; preds = %23
  %33 = icmp eq i32 %27, 0
  br i1 %33, label %34, label %37

34:                                               ; preds = %32
  %.not.i.i = icmp ne ptr %30, null
  tail call void @llvm.assume(i1 %.not.i.i)
  %35 = getelementptr inbounds nuw i8, ptr %11, i64 16
  %36 = load ptr, ptr %35, align 8, !tbaa !61
  tail call void %36(ptr noundef %11, ptr noundef nonnull %30) #34
  unreachable

37:                                               ; preds = %32
  %38 = icmp sgt i32 %25, 268435454
  br i1 %38, label %ft_mem_qrealloc.exit, label %39

39:                                               ; preds = %37
  %40 = icmp eq i32 %25, 0
  br i1 %40, label %41, label %46

41:                                               ; preds = %39
  %42 = getelementptr inbounds nuw i8, ptr %11, i64 8
  %43 = load ptr, ptr %42, align 8, !tbaa !179
  %44 = tail call ptr %43(ptr noundef %11, i64 noundef 8) #34
  %45 = icmp eq ptr %44, null
  br i1 %45, label %ft_mem_qrealloc.exit, label %52

46:                                               ; preds = %39
  %47 = shl nsw i64 %26, 3
  %48 = shl nsw i64 %28, 3
  %49 = getelementptr inbounds nuw i8, ptr %11, i64 24
  %50 = load ptr, ptr %49, align 8, !tbaa !205
  %51 = tail call ptr %50(ptr noundef %11, i64 noundef %47, i64 noundef %48, ptr noundef %30) #34
  %.not.i = icmp eq ptr %51, null
  br i1 %.not.i, label %ft_mem_qrealloc.exit, label %52

ft_mem_qrealloc.exit:                             ; preds = %41, %46, %23, %37
  %.033.i = phi i32 [ 6, %23 ], [ 10, %37 ], [ 64, %46 ], [ 64, %41 ]
  %.0.i = phi ptr [ %30, %23 ], [ %30, %37 ], [ %30, %46 ], [ null, %41 ]
  store ptr %.0.i, ptr %29, align 8, !tbaa !337
  br label %58

52:                                               ; preds = %46, %41
  %.0.i.ph = phi ptr [ %44, %41 ], [ %51, %46 ]
  store ptr %.0.i.ph, ptr %29, align 8, !tbaa !337
  %53 = load i32, ptr %24, align 8, !tbaa !336
  %54 = add nsw i32 %53, 1
  store i32 %54, ptr %24, align 8, !tbaa !336
  %55 = sext i32 %53 to i64
  %56 = getelementptr inbounds ptr, ptr %.0.i.ph, i64 %55
  store ptr %.0.i17.i.ph, ptr %56, align 8, !tbaa !338
  br label %ft_mem_alloc.exit

ft_mem_alloc.exit:                                ; preds = %ft_mem_qalloc.exit.i, %ft_mem_qalloc.exit.thread.i, %52, %ft_cmap_done_internal.exit
  %.1 = phi i32 [ 0, %52 ], [ %.042, %ft_cmap_done_internal.exit ], [ 6, %ft_mem_qalloc.exit.thread.i ], [ 64, %ft_mem_qalloc.exit.i ]
  %.0 = phi ptr [ %.0.i17.i.ph, %52 ], [ null, %ft_cmap_done_internal.exit ], [ null, %ft_mem_qalloc.exit.thread.i ], [ null, %ft_mem_qalloc.exit.i ]
  %.not38 = icmp eq ptr %3, null
  br i1 %.not38, label %68, label %57

57:                                               ; preds = %ft_mem_alloc.exit
  store ptr %.0, ptr %3, align 8, !tbaa !397
  br label %68

58:                                               ; preds = %ft_mem_qrealloc.exit, %21
  %.042 = phi i32 [ %.033.i, %ft_mem_qrealloc.exit ], [ %22, %21 ]
  %59 = load ptr, ptr %18, align 8, !tbaa !292
  %60 = load ptr, ptr %.0.i17.i.ph, align 8, !tbaa !339
  %61 = getelementptr inbounds nuw i8, ptr %60, i64 184
  %62 = load ptr, ptr %61, align 8, !tbaa !60
  %63 = getelementptr inbounds nuw i8, ptr %59, i64 16
  %64 = load ptr, ptr %63, align 8, !tbaa !340
  %.not.i39 = icmp eq ptr %64, null
  br i1 %.not.i39, label %ft_cmap_done_internal.exit, label %65

65:                                               ; preds = %58
  tail call void %64(ptr noundef nonnull %.0.i17.i.ph) #34
  br label %ft_cmap_done_internal.exit

ft_cmap_done_internal.exit:                       ; preds = %58, %65
  %66 = getelementptr inbounds nuw i8, ptr %62, i64 16
  %67 = load ptr, ptr %66, align 8, !tbaa !61
  tail call void %67(ptr noundef %62, ptr noundef nonnull %.0.i17.i.ph) #34
  br label %ft_mem_alloc.exit

68:                                               ; preds = %ft_mem_alloc.exit, %57, %4, %7
  %.028 = phi i32 [ 6, %7 ], [ 6, %4 ], [ %.1, %57 ], [ %.1, %ft_mem_alloc.exit ]
  ret i32 %.028
}